target datalayout = "e-m:e-p270:32:32-p271:32:32-p272:64:64-i64:64-i128:128-f80:128-n8:16:32:64-S128"
target triple = "x86_64-pc-linux-gnu"

%struct.Vec_Int_t_ = type { i32, i32, ptr }

; Function Attrs: inlinehint nounwind uwtable
define internal void @Vec_IntShrink(ptr noundef %0, i32 noundef %1) #2 {
  %3 = alloca ptr, align 8
  %4 = alloca i32, align 4
  store ptr %0, ptr %3, align 8, !tbaa !31
  store i32 %1, ptr %4, align 4, !tbaa !8
  %5 = load i32, ptr %4, align 4, !tbaa !8
  %6 = load ptr, ptr %3, align 8, !tbaa !31
  %7 = getelementptr inbounds nuw %struct.Vec_Int_t_, ptr %6, i32 0, i32 1
  store i32 %5, ptr %7, align 4, !tbaa !33
  ret void
}

; Function Attrs: inlinehint nounwind uwtable
define internal i32 @Abc_LitNot(i32 noundef %0) #2 {
  %2 = alloca i32, align 4
  store i32 %0, ptr %2, align 4, !tbaa !8
  %3 = load i32, ptr %2, align 4, !tbaa !8
  %4 = xor i32 %3, 1
  ret i32 %4
}

; Function Attrs: nounwind uwtable
define void @Wlc_BlastFullAdderSubtr(ptr noundef %0, i32 noundef %1, i32 noundef %2, i32 noundef %3, ptr noundef %4, ptr noundef %5, i32 noundef %6) #0 {
  %8 = alloca ptr, align 8
  %9 = alloca i32, align 4
  %10 = alloca i32, align 4
  %11 = alloca i32, align 4
  %12 = alloca ptr, align 8
  %13 = alloca ptr, align 8
  %14 = alloca i32, align 4
  store ptr %0, ptr %8, align 8, !tbaa !38
  store i32 %1, ptr %9, align 4, !tbaa !8
  store i32 %2, ptr %10, align 4, !tbaa !8
  store i32 %3, ptr %11, align 4, !tbaa !8
  store ptr %4, ptr %12, align 8, !tbaa !3
  store ptr %5, ptr %13, align 8, !tbaa !3
  store i32 %6, ptr %14, align 4, !tbaa !8
  %15 = load ptr, ptr %8, align 8, !tbaa !38
  %16 = load ptr, ptr %8, align 8, !tbaa !38
  %17 = load i32, ptr %9, align 4, !tbaa !8
  %18 = load i32, ptr %14, align 4, !tbaa !8
  %19 = call i32 @Gia_ManHashXor(ptr noundef %16, i32 noundef %17, i32 noundef %18)
  %20 = load i32, ptr %10, align 4, !tbaa !8
  %21 = load i32, ptr %11, align 4, !tbaa !8
  %22 = load ptr, ptr %12, align 8, !tbaa !3
  %23 = load ptr, ptr %13, align 8, !tbaa !3
  call void @Wlc_BlastFullAdder(ptr noundef %15, i32 noundef %19, i32 noundef %20, i32 noundef %21, ptr noundef %22, ptr noundef %23)
  ret void
}

; Function Attrs: inlinehint nounwind uwtable
define internal ptr @Vec_IntArray(ptr noundef %0) #2 {
  %2 = alloca ptr, align 8
  store ptr %0, ptr %2, align 8, !tbaa !31
  %3 = load ptr, ptr %2, align 8, !tbaa !31
  %4 = getelementptr inbounds nuw %struct.Vec_Int_t_, ptr %3, i32 0, i32 2
  %5 = load ptr, ptr %4, align 8, !tbaa !35
  ret ptr %5
}

; Function Attrs: nounwind uwtable
define void @Wlc_BlastDividerNR(ptr noundef %0, ptr noundef %1, i32 noundef %2, ptr noundef %3, i32 noundef %4, i32 noundef %5, ptr noundef %6) #0 {
  %8 = alloca ptr, align 8
  %9 = alloca ptr, align 8
  %10 = alloca i32, align 4
  %11 = alloca ptr, align 8
  %12 = alloca i32, align 4
  %13 = alloca i32, align 4
  %14 = alloca ptr, align 8
  %15 = alloca i32, align 4
  %16 = alloca ptr, align 8
  %17 = alloca i32, align 4
  %18 = alloca ptr, align 8
  %19 = alloca i32, align 4
  %20 = alloca i32, align 4
  %21 = alloca i32, align 4
  %22 = alloca i32, align 4
  store ptr %0, ptr %8, align 8, !tbaa !38
  store ptr %1, ptr %9, align 8, !tbaa !3
  store i32 %2, ptr %10, align 4, !tbaa !8
  store ptr %3, ptr %11, align 8, !tbaa !3
  store i32 %4, ptr %12, align 4, !tbaa !8
  store i32 %5, ptr %13, align 4, !tbaa !8
  store ptr %6, ptr %14, align 8, !tbaa !31
  call void @llvm.lifetime.start.p0(i64 4, ptr %15) #12
  call void @llvm.lifetime.start.p0(i64 8, ptr %16) #12
  %23 = load ptr, ptr %14, align 8, !tbaa !31
  %24 = call ptr @Vec_IntArray(ptr noundef %23)
  store ptr %24, ptr %16, align 8, !tbaa !3
  call void @llvm.lifetime.start.p0(i64 4, ptr %17) #12
  call void @llvm.lifetime.start.p0(i64 8, ptr %18) #12
  %25 = load i32, ptr %10, align 4, !tbaa !8
  %26 = sext i32 %25 to i64
  %27 = mul i64 4, %26
  %28 = call noalias ptr @malloc(i64 noundef %27) #14
  store ptr %28, ptr %18, align 8, !tbaa !3
  store i32 0, ptr %15, align 4, !tbaa !8
  br label %29

29:                                               ; preds = %52, %7
  %30 = load i32, ptr %15, align 4, !tbaa !8
  %31 = load i32, ptr %10, align 4, !tbaa !8
  %32 = load i32, ptr %12, align 4, !tbaa !8
  %33 = add nsw i32 %31, %32
  %34 = icmp slt i32 %30, %33
  br i1 %34, label %35, label %55

35:                                               ; preds = %29
  %36 = load i32, ptr %15, align 4, !tbaa !8
  %37 = load i32, ptr %10, align 4, !tbaa !8
  %38 = icmp slt i32 %36, %37
  br i1 %38, label %39, label %45

39:                                               ; preds = %35
  %40 = load ptr, ptr %9, align 8, !tbaa !3
  %41 = load i32, ptr %15, align 4, !tbaa !8
  %42 = sext i32 %41 to i64
  %43 = getelementptr inbounds i32, ptr %40, i64 %42
  %44 = load i32, ptr %43, align 4, !tbaa !8
  br label %46

45:                                               ; preds = %35
  br label %46

46:                                               ; preds = %45, %39
  %47 = phi i32 [ %44, %39 ], [ 0, %45 ]
  %48 = load ptr, ptr %16, align 8, !tbaa !3
  %49 = load i32, ptr %15, align 4, !tbaa !8
  %50 = sext i32 %49 to i64
  %51 = getelementptr inbounds i32, ptr %48, i64 %50
  store i32 %47, ptr %51, align 4, !tbaa !8
  br label %52

52:                                               ; preds = %46
  %53 = load i32, ptr %15, align 4, !tbaa !8
  %54 = add nsw i32 %53, 1
  store i32 %54, ptr %15, align 4, !tbaa !8
  br label %29, !llvm.loop !109

55:                                               ; preds = %29
  %56 = load i32, ptr %10, align 4, !tbaa !8
  %57 = sub nsw i32 %56, 1
  store i32 %57, ptr %15, align 4, !tbaa !8
  br label %58

58:                                               ; preds = %126, %55
  %59 = load i32, ptr %15, align 4, !tbaa !8
  %60 = icmp sge i32 %59, 0
  br i1 %60, label %61, label %129

61:                                               ; preds = %58
  call void @llvm.lifetime.start.p0(i64 4, ptr %19) #12
  %62 = load i32, ptr %15, align 4, !tbaa !8
  %63 = load i32, ptr %10, align 4, !tbaa !8
  %64 = sub nsw i32 %63, 1
  %65 = icmp eq i32 %62, %64
  br i1 %65, label %66, label %67

66:                                               ; preds = %61
  br label %74

67:                                               ; preds = %61
  %68 = load ptr, ptr %18, align 8, !tbaa !3
  %69 = load i32, ptr %15, align 4, !tbaa !8
  %70 = add nsw i32 %69, 1
  %71 = sext i32 %70 to i64
  %72 = getelementptr inbounds i32, ptr %68, i64 %71
  %73 = load i32, ptr %72, align 4, !tbaa !8
  br label %74

74:                                               ; preds = %67, %66
  %75 = phi i32 [ 1, %66 ], [ %73, %67 ]
  store i32 %75, ptr %19, align 4, !tbaa !8
  call void @llvm.lifetime.start.p0(i64 4, ptr %20) #12
  %76 = load i32, ptr %19, align 4, !tbaa !8
  store i32 %76, ptr %20, align 4, !tbaa !8
  store i32 0, ptr %17, align 4, !tbaa !8
  br label %77

77:                                               ; preds = %110, %74
  %78 = load i32, ptr %17, align 4, !tbaa !8
  %79 = load i32, ptr %12, align 4, !tbaa !8
  %80 = icmp sle i32 %78, %79
  br i1 %80, label %81, label %113

81:                                               ; preds = %77
  %82 = load ptr, ptr %8, align 8, !tbaa !38
  %83 = load i32, ptr %17, align 4, !tbaa !8
  %84 = load i32, ptr %12, align 4, !tbaa !8
  %85 = icmp slt i32 %83, %84
  br i1 %85, label %86, label %92

86:                                               ; preds = %81
  %87 = load ptr, ptr %11, align 8, !tbaa !3
  %88 = load i32, ptr %17, align 4, !tbaa !8
  %89 = sext i32 %88 to i64
  %90 = getelementptr inbounds i32, ptr %87, i64 %89
  %91 = load i32, ptr %90, align 4, !tbaa !8
  br label %93

92:                                               ; preds = %81
  br label %93

93:                                               ; preds = %92, %86
  %94 = phi i32 [ %91, %86 ], [ 0, %92 ]
  %95 = load ptr, ptr %16, align 8, !tbaa !3
  %96 = load i32, ptr %15, align 4, !tbaa !8
  %97 = load i32, ptr %17, align 4, !tbaa !8
  %98 = add nsw i32 %96, %97
  %99 = sext i32 %98 to i64
  %100 = getelementptr inbounds i32, ptr %95, i64 %99
  %101 = load i32, ptr %100, align 4, !tbaa !8
  %102 = load i32, ptr %20, align 4, !tbaa !8
  %103 = load ptr, ptr %16, align 8, !tbaa !3
  %104 = load i32, ptr %15, align 4, !tbaa !8
  %105 = load i32, ptr %17, align 4, !tbaa !8
  %106 = add nsw i32 %104, %105
  %107 = sext i32 %106 to i64
  %108 = getelementptr inbounds i32, ptr %103, i64 %107
  %109 = load i32, ptr %19, align 4, !tbaa !8
  call void @Wlc_BlastFullAdderSubtr(ptr noundef %82, i32 noundef %94, i32 noundef %101, i32 noundef %102, ptr noundef %20, ptr noundef %108, i32 noundef %109)
  br label %110

110:                                              ; preds = %93
  %111 = load i32, ptr %17, align 4, !tbaa !8
  %112 = add nsw i32 %111, 1
  store i32 %112, ptr %17, align 4, !tbaa !8
  br label %77, !llvm.loop !110

113:                                              ; preds = %77
  %114 = load ptr, ptr %16, align 8, !tbaa !3
  %115 = load i32, ptr %15, align 4, !tbaa !8
  %116 = load i32, ptr %12, align 4, !tbaa !8
  %117 = add nsw i32 %115, %116
  %118 = sext i32 %117 to i64
  %119 = getelementptr inbounds i32, ptr %114, i64 %118
  %120 = load i32, ptr %119, align 4, !tbaa !8
  %121 = call i32 @Abc_LitNot(i32 noundef %120)
  %122 = load ptr, ptr %18, align 8, !tbaa !3
  %123 = load i32, ptr %15, align 4, !tbaa !8
  %124 = sext i32 %123 to i64
  %125 = getelementptr inbounds i32, ptr %122, i64 %124
  store i32 %121, ptr %125, align 4, !tbaa !8
  call void @llvm.lifetime.end.p0(i64 4, ptr %20) #12
  call void @llvm.lifetime.end.p0(i64 4, ptr %19) #12
  br label %126

126:                                              ; preds = %113
  %127 = load i32, ptr %15, align 4, !tbaa !8
  %128 = add nsw i32 %127, -1
  store i32 %128, ptr %15, align 4, !tbaa !8
  br label %58, !llvm.loop !111

129:                                              ; preds = %58
  %130 = load i32, ptr %13, align 4, !tbaa !8
  %131 = icmp ne i32 %130, 0
  br i1 %131, label %132, label %137

132:                                              ; preds = %129
  %133 = load ptr, ptr %14, align 8, !tbaa !31
  %134 = load ptr, ptr %18, align 8, !tbaa !3
  %135 = load i32, ptr %10, align 4, !tbaa !8
  %136 = call ptr @Wlc_VecCopy(ptr noundef %133, ptr noundef %134, i32 noundef %135)
  br label %176

137:                                              ; preds = %129
  call void @llvm.lifetime.start.p0(i64 4, ptr %21) #12
  store i32 0, ptr %21, align 4, !tbaa !8
  call void @llvm.lifetime.start.p0(i64 4, ptr %22) #12
  store i32 0, ptr %17, align 4, !tbaa !8
  br label %138

138:                                              ; preds = %170, %137
  %139 = load i32, ptr %17, align 4, !tbaa !8
  %140 = load i32, ptr %12, align 4, !tbaa !8
  %141 = icmp slt i32 %139, %140
  br i1 %141, label %142, label %173

142:                                              ; preds = %138
  %143 = load ptr, ptr %8, align 8, !tbaa !38
  %144 = load ptr, ptr %11, align 8, !tbaa !3
  %145 = load i32, ptr %17, align 4, !tbaa !8
  %146 = sext i32 %145 to i64
  %147 = getelementptr inbounds i32, ptr %144, i64 %146
  %148 = load i32, ptr %147, align 4, !tbaa !8
  %149 = load ptr, ptr %16, align 8, !tbaa !3
  %150 = load i32, ptr %17, align 4, !tbaa !8
  %151 = sext i32 %150 to i64
  %152 = getelementptr inbounds i32, ptr %149, i64 %151
  %153 = load i32, ptr %152, align 4, !tbaa !8
  %154 = load i32, ptr %21, align 4, !tbaa !8
  call void @Wlc_BlastFullAdder(ptr noundef %143, i32 noundef %148, i32 noundef %153, i32 noundef %154, ptr noundef %21, ptr noundef %22)
  %155 = load ptr, ptr %8, align 8, !tbaa !38
  %156 = load ptr, ptr %18, align 8, !tbaa !3
  %157 = getelementptr inbounds i32, ptr %156, i64 0
  %158 = load i32, ptr %157, align 4, !tbaa !8
  %159 = load ptr, ptr %16, align 8, !tbaa !3
  %160 = load i32, ptr %17, align 4, !tbaa !8
  %161 = sext i32 %160 to i64
  %162 = getelementptr inbounds i32, ptr %159, i64 %161
  %163 = load i32, ptr %162, align 4, !tbaa !8
  %164 = load i32, ptr %22, align 4, !tbaa !8
  %165 = call i32 @Gia_ManHashMux(ptr noundef %155, i32 noundef %158, i32 noundef %163, i32 noundef %164)
  %166 = load ptr, ptr %16, align 8, !tbaa !3
  %167 = load i32, ptr %17, align 4, !tbaa !8
  %168 = sext i32 %167 to i64
  %169 = getelementptr inbounds i32, ptr %166, i64 %168
  store i32 %165, ptr %169, align 4, !tbaa !8
  br label %170

170:                                              ; preds = %142
  %171 = load i32, ptr %17, align 4, !tbaa !8
  %172 = add nsw i32 %171, 1
  store i32 %172, ptr %17, align 4, !tbaa !8
  br label %138, !llvm.loop !112

173:                                              ; preds = %138
  %174 = load ptr, ptr %14, align 8, !tbaa !31
  %175 = load i32, ptr %12, align 4, !tbaa !8
  call void @Vec_IntShrink(ptr noundef %174, i32 noundef %175)
  call void @llvm.lifetime.end.p0(i64 4, ptr %22) #12
  call void @llvm.lifetime.end.p0(i64 4, ptr %21) #12
  br label %176

176:                                              ; preds = %173, %132
  %177 = load ptr, ptr %18, align 8, !tbaa !3
  %178 = icmp ne ptr %177, null
  br i1 %178, label %179, label %181

179:                                              ; preds = %176
  %180 = load ptr, ptr %18, align 8, !tbaa !3
  call void @free(ptr noundef %180) #12
  store ptr null, ptr %18, align 8, !tbaa !3
  br label %182

181:                                              ; preds = %176
  br label %182

182:                                              ; preds = %181, %179
  call void @llvm.lifetime.end.p0(i64 8, ptr %18) #12
  call void @llvm.lifetime.end.p0(i64 4, ptr %17) #12
  call void @llvm.lifetime.end.p0(i64 8, ptr %16) #12
  call void @llvm.lifetime.end.p0(i64 4, ptr %15) #12
  ret void
}