; Function Attrs: nounwind uwtable
define void @Wlc_BlastDividerNR(ptr noundef %0, ptr noundef readonly captures(none) %1, i32 noundef %2, ptr noundef readonly captures(none) %3, i32 noundef %4, i32 noundef %5, ptr noundef captures(none) %6) local_unnamed_addr #2 {
  %8 = alloca i32, align 4
  %9 = alloca i32, align 4
  %10 = getelementptr i8, ptr %6, i64 8
  %.val = load ptr, ptr %10, align 8, !tbaa !22
  %11 = sext i32 %2 to i64
  %12 = shl nsw i64 %11, 2
  %13 = tail call noalias ptr @malloc(i64 noundef %12) #22
  %14 = add nsw i32 %4, %2
  %15 = icmp sgt i32 %14, 0
  br i1 %15, label %.lr.ph.preheader, label %._crit_edge

.lr.ph.preheader:                                 ; preds = %7
  %wide.trip.count = zext nneg i32 %14 to i64
  br label %.lr.ph

.lr.ph:                                           ; preds = %.lr.ph.preheader, %20
  %indvars.iv = phi i64 [ 0, %.lr.ph.preheader ], [ %indvars.iv.next, %20 ]
  %16 = icmp slt i64 %indvars.iv, %11
  br i1 %16, label %17, label %20

17:                                               ; preds = %.lr.ph
  %18 = getelementptr inbounds nuw i32, ptr %1, i64 %indvars.iv
  %19 = load i32, ptr %18, align 4, !tbaa !3
  br label %20

20:                                               ; preds = %.lr.ph, %17
  %21 = phi i32 [ %19, %17 ], [ 0, %.lr.ph ]
  %22 = getelementptr inbounds nuw i32, ptr %.val, i64 %indvars.iv
  store i32 %21, ptr %22, align 4, !tbaa !3
  %indvars.iv.next = add nuw nsw i64 %indvars.iv, 1
  %exitcond.not = icmp eq i64 %indvars.iv.next, %wide.trip.count
  br i1 %exitcond.not, label %._crit_edge, label %.lr.ph, !llvm.loop !95

._crit_edge:                                      ; preds = %20, %7
  %23 = add nsw i32 %2, -1
  %24 = icmp sgt i32 %2, 0
  br i1 %24, label %.lr.ph80, label %._crit_edge81

.lr.ph80:                                         ; preds = %._crit_edge
  %.not6772 = icmp slt i32 %4, 0
  br i1 %.not6772, label %.lr.ph80.split.us.preheader, label %.lr.ph80.split.preheader

.lr.ph80.split.preheader:                         ; preds = %.lr.ph80
  %25 = zext nneg i32 %4 to i64
  %26 = add nuw i32 %4, 1
  %27 = zext nneg i32 %23 to i64
  %wide.trip.count91 = zext i32 %26 to i64
  %invariant.gep106 = getelementptr i32, ptr %.val, i64 %25
  br label %.lr.ph80.split

.lr.ph80.split.us.preheader:                      ; preds = %.lr.ph80
  %28 = sext i32 %4 to i64
  %invariant.gep108 = getelementptr i32, ptr %.val, i64 %28
  br label %.lr.ph80.split.us

.lr.ph80.split.us:                                ; preds = %.lr.ph80.split.us.preheader, %.lr.ph80.split.us
  %indvars.iv96.in = phi i64 [ %11, %.lr.ph80.split.us.preheader ], [ %indvars.iv96, %.lr.ph80.split.us ]
  %indvars.iv96 = add nsw i64 %indvars.iv96.in, -1
  %gep109 = getelementptr i32, ptr %invariant.gep108, i64 %indvars.iv96
  %29 = load i32, ptr %gep109, align 4, !tbaa !3
  %30 = xor i32 %29, 1
  %31 = getelementptr inbounds nuw i32, ptr %13, i64 %indvars.iv96
  store i32 %30, ptr %31, align 4, !tbaa !3
  %32 = icmp sgt i64 %indvars.iv96.in, 1
  br i1 %32, label %.lr.ph80.split.us, label %._crit_edge81, !llvm.loop !96

.lr.ph80.split:                                   ; preds = %.lr.ph80.split.preheader, %._crit_edge77
  %indvars.iv93.in = phi i64 [ %11, %.lr.ph80.split.preheader ], [ %indvars.iv93, %._crit_edge77 ]
  %indvars.iv93 = add nsw i64 %indvars.iv93.in, -1
  %33 = icmp eq i64 %indvars.iv93, %27
  br i1 %33, label %.lr.ph76, label %34

34:                                               ; preds = %.lr.ph80.split
  %gep = getelementptr i32, ptr %13, i64 %indvars.iv93.in
  %35 = load i32, ptr %gep, align 4, !tbaa !3
  br label %.lr.ph76

.lr.ph76:                                         ; preds = %.lr.ph80.split, %34
  %36 = phi i32 [ %35, %34 ], [ 1, %.lr.ph80.split ]
  %invariant.gep = getelementptr i32, ptr %.val, i64 %indvars.iv93
  br label %37

37:                                               ; preds = %.lr.ph76, %Wlc_BlastFullAdder.exit
  %indvars.iv88 = phi i64 [ 0, %.lr.ph76 ], [ %indvars.iv.next89, %Wlc_BlastFullAdder.exit ]
  %.06973 = phi i32 [ %36, %.lr.ph76 ], [ %.170, %Wlc_BlastFullAdder.exit ]
  %38 = icmp samesign ult i64 %indvars.iv88, %25
  br i1 %38, label %39, label %42

39:                                               ; preds = %37
  %40 = getelementptr inbounds nuw i32, ptr %3, i64 %indvars.iv88
  %41 = load i32, ptr %40, align 4, !tbaa !3
  br label %42

42:                                               ; preds = %37, %39
  %43 = phi i32 [ %41, %39 ], [ 0, %37 ]
  %gep105 = getelementptr i32, ptr %invariant.gep, i64 %indvars.iv88
  %44 = load i32, ptr %gep105, align 4, !tbaa !3
  %45 = tail call i32 @Gia_ManHashXor(ptr noundef %0, i32 noundef %43, i32 noundef %36) #23
  %46 = icmp eq i32 %45, 1
  %47 = icmp eq i32 %44, 1
  %or.cond.i = or i1 %47, %46
  %48 = icmp eq i32 %.06973, 1
  %spec.select.i = or i1 %48, %or.cond.i
  %49 = zext i1 %spec.select.i to i32
  %.054.i = xor i32 %.06973, %49
  %.053.i = xor i32 %44, %49
  %.0.i = xor i32 %45, %49
  %50 = tail call i32 @Gia_ManHashAnd(ptr noundef %0, i32 noundef %.0.i, i32 noundef %.053.i) #23
  %51 = xor i32 %.0.i, 1
  %52 = xor i32 %.053.i, 1
  %53 = tail call i32 @Gia_ManHashAnd(ptr noundef %0, i32 noundef %51, i32 noundef %52) #23
  %54 = xor i32 %50, 1
  %55 = xor i32 %53, 1
  %56 = tail call i32 @Gia_ManHashAnd(ptr noundef %0, i32 noundef %54, i32 noundef %55) #23
  %57 = tail call i32 @Gia_ManHashAnd(ptr noundef %0, i32 noundef %.054.i, i32 noundef %56) #23
  %58 = xor i32 %.054.i, 1
  %59 = xor i32 %56, 1
  %60 = tail call i32 @Gia_ManHashAnd(ptr noundef %0, i32 noundef %58, i32 noundef %59) #23
  %61 = xor i32 %57, 1
  %62 = xor i32 %60, 1
  %63 = tail call i32 @Gia_ManHashAnd(ptr noundef %0, i32 noundef %61, i32 noundef %62) #23
  store i32 %63, ptr %gep105, align 4, !tbaa !3
  %64 = tail call i32 @Gia_ManHashOr(ptr noundef %0, i32 noundef %50, i32 noundef %57) #23
  br i1 %spec.select.i, label %65, label %Wlc_BlastFullAdder.exit

65:                                               ; preds = %42
  %66 = load i32, ptr %gep105, align 4, !tbaa !3
  %67 = xor i32 %66, 1
  store i32 %67, ptr %gep105, align 4, !tbaa !3
  %68 = xor i32 %64, 1
  br label %Wlc_BlastFullAdder.exit

Wlc_BlastFullAdder.exit:                          ; preds = %42, %65
  %.170 = phi i32 [ %68, %65 ], [ %64, %42 ]
  %indvars.iv.next89 = add nuw nsw i64 %indvars.iv88, 1
  %exitcond92.not = icmp eq i64 %indvars.iv.next89, %wide.trip.count91
  br i1 %exitcond92.not, label %._crit_edge77, label %37, !llvm.loop !97

._crit_edge77:                                    ; preds = %Wlc_BlastFullAdder.exit
  %gep107 = getelementptr i32, ptr %invariant.gep106, i64 %indvars.iv93
  %69 = load i32, ptr %gep107, align 4, !tbaa !3
  %70 = xor i32 %69, 1
  %71 = getelementptr inbounds nuw i32, ptr %13, i64 %indvars.iv93
  store i32 %70, ptr %71, align 4, !tbaa !3
  %72 = icmp sgt i64 %indvars.iv93.in, 1
  br i1 %72, label %.lr.ph80.split, label %._crit_edge81, !llvm.loop !96

._crit_edge81:                                    ; preds = %._crit_edge77, %.lr.ph80.split.us, %._crit_edge
  %.not = icmp eq i32 %5, 0
  br i1 %.not, label %75, label %73

73:                                               ; preds = %._crit_edge81
  %74 = tail call ptr @Wlc_VecCopy(ptr noundef %6, ptr noundef %13, i32 noundef %2)
  br label %87

75:                                               ; preds = %._crit_edge81
  call void @llvm.lifetime.start.p0(i64 4, ptr nonnull %8) #23
  store i32 0, ptr %8, align 4, !tbaa !3
  call void @llvm.lifetime.start.p0(i64 4, ptr nonnull %9) #23
  %76 = icmp sgt i32 %4, 0
  br i1 %76, label %.lr.ph84.preheader, label %._crit_edge85

.lr.ph84.preheader:                               ; preds = %75
  %wide.trip.count102 = zext nneg i32 %4 to i64
  br label %.lr.ph84

.lr.ph84:                                         ; preds = %.lr.ph84.preheader, %.lr.ph84
  %indvars.iv99 = phi i64 [ 0, %.lr.ph84.preheader ], [ %indvars.iv.next100, %.lr.ph84 ]
  %77 = getelementptr inbounds nuw i32, ptr %3, i64 %indvars.iv99
  %78 = load i32, ptr %77, align 4, !tbaa !3
  %79 = getelementptr inbounds nuw i32, ptr %.val, i64 %indvars.iv99
  %80 = load i32, ptr %79, align 4, !tbaa !3
  %81 = load i32, ptr %8, align 4, !tbaa !3
  call void @Wlc_BlastFullAdder(ptr noundef %0, i32 noundef %78, i32 noundef %80, i32 noundef %81, ptr noundef nonnull %8, ptr noundef nonnull %9)
  %82 = load i32, ptr %13, align 4, !tbaa !3
  %83 = load i32, ptr %79, align 4, !tbaa !3
  %84 = load i32, ptr %9, align 4, !tbaa !3
  %85 = tail call i32 @Gia_ManHashMux(ptr noundef %0, i32 noundef %82, i32 noundef %83, i32 noundef %84) #23
  store i32 %85, ptr %79, align 4, !tbaa !3
  %indvars.iv.next100 = add nuw nsw i64 %indvars.iv99, 1
  %exitcond103.not = icmp eq i64 %indvars.iv.next100, %wide.trip.count102
  br i1 %exitcond103.not, label %._crit_edge85, label %.lr.ph84, !llvm.loop !98

._crit_edge85:                                    ; preds = %.lr.ph84, %75
  %86 = getelementptr inbounds nuw i8, ptr %6, i64 4
  store i32 %4, ptr %86, align 4, !tbaa !23
  call void @llvm.lifetime.end.p0(i64 4, ptr nonnull %9) #23
  call void @llvm.lifetime.end.p0(i64 4, ptr nonnull %8) #23
  br label %87

87:                                               ; preds = %._crit_edge85, %73
  %.not66 = icmp eq ptr %13, null
  br i1 %.not66, label %89, label %88

88:                                               ; preds = %87
  tail call void @free(ptr noundef nonnull %13) #23
  br label %89

89:                                               ; preds = %87, %88
  ret void
}